; Function Attrs: nounwind uwtable
define internal ptr @fire_event_call(ptr readnone captures(none) %0, ptr noundef %1) #0 {
  %3 = alloca ptr, align 8
  %4 = alloca i32, align 4
  %5 = alloca ptr, align 8
  %6 = alloca ptr, align 8
  call void @llvm.lifetime.start.p0(i64 8, ptr nonnull %3) #4
  call void @llvm.lifetime.start.p0(i64 4, ptr nonnull %4) #4
  call void @llvm.lifetime.start.p0(i64 8, ptr nonnull %5) #4
  call void @llvm.lifetime.start.p0(i64 8, ptr nonnull %6) #4
  %7 = call i32 (ptr, ptr, ...) @PyArg_ParseTuple(ptr noundef %1, ptr noundef nonnull @.str.36, ptr noundef nonnull %3, ptr noundef nonnull %4, ptr noundef nonnull %5, ptr noundef nonnull %6) #4
  %.not = icmp eq i32 %7, 0
  br i1 %.not, label %44, label %8

8:                                                ; preds = %2
  %9 = load ptr, ptr %3, align 8, !tbaa !32
  %10 = load i32, ptr %4, align 4, !tbaa !29
  %11 = getelementptr i8, ptr %9, i64 8
  %.val14.i = load ptr, ptr %11, align 8, !tbaa !14
  %.not.i = icmp eq ptr %.val14.i, @PyCodeLike_Type
  br i1 %.not.i, label %16, label %setup_fire.exit.thread

setup_fire.exit.thread:                           ; preds = %8
  %12 = load ptr, ptr @PyExc_TypeError, align 8, !tbaa !32
  %13 = getelementptr inbounds nuw i8, ptr %.val14.i, i64 24
  %14 = load ptr, ptr %13, align 8, !tbaa !33
  %15 = call ptr (ptr, ptr, ...) @PyErr_Format(ptr noundef %12, ptr noundef nonnull @.str.32, ptr noundef %14) #4
  br label %44

16:                                               ; preds = %8
  %17 = icmp sgt i32 %10, -1
  br i1 %17, label %18, label %22

18:                                               ; preds = %16
  %19 = getelementptr inbounds nuw i8, ptr %9, i64 32
  %20 = load i32, ptr %19, align 8, !tbaa !24
  %21 = icmp slt i32 %10, %20
  br i1 %21, label %setup_fire.exit, label %22

22:                                               ; preds = %18, %16
  call void @__assert_fail(ptr noundef nonnull @.str.33, ptr noundef nonnull @.str.30, i32 noundef 120, ptr noundef nonnull @__PRETTY_FUNCTION__.setup_fire) #5
  unreachable

setup_fire.exit:                                  ; preds = %18
  %23 = getelementptr inbounds nuw i8, ptr %9, i64 16
  %24 = load ptr, ptr %23, align 8, !tbaa !6
  %25 = zext nneg i32 %10 to i64
  %26 = getelementptr %struct._PyMonitoringState, ptr %24, i64 %25
  %27 = icmp eq ptr %26, null
  br i1 %27, label %44, label %28

28:                                               ; preds = %setup_fire.exit
  %29 = load i8, ptr %26, align 1, !tbaa !27
  %.not.i13 = icmp eq i8 %29, 0
  br i1 %.not.i13, label %PyMonitoring_FireCallEvent.exit.thread, label %PyMonitoring_FireCallEvent.exit

PyMonitoring_FireCallEvent.exit:                  ; preds = %28
  %30 = load ptr, ptr %6, align 8, !tbaa !32
  %31 = load ptr, ptr %5, align 8, !tbaa !32
  %32 = call i32 @_PyMonitoring_FireCallEvent(ptr noundef nonnull %26, ptr noundef nonnull %9, i32 noundef %10, ptr noundef %31, ptr noundef %30) #4
  %33 = icmp eq i32 %32, -1
  br i1 %33, label %teardown_fire.exit.thread, label %PyMonitoring_FireCallEvent.exit.thread

PyMonitoring_FireCallEvent.exit.thread:           ; preds = %28, %PyMonitoring_FireCallEvent.exit
  %34 = call ptr @PyErr_Occurred() #4
  %.not5.i = icmp eq ptr %34, null
  br i1 %.not5.i, label %teardown_fire.exit, label %35

35:                                               ; preds = %PyMonitoring_FireCallEvent.exit.thread
  call void @__assert_fail(ptr noundef nonnull @.str.31, ptr noundef nonnull @.str.30, i32 noundef 141, ptr noundef nonnull @__PRETTY_FUNCTION__.teardown_fire) #5
  unreachable

teardown_fire.exit:                               ; preds = %PyMonitoring_FireCallEvent.exit.thread
  call void @PyErr_Clear() #4
  %36 = load i8, ptr %26, align 1, !tbaa !27
  %37 = call ptr @PyErr_Occurred() #4
  %.not11 = icmp eq ptr %37, null
  br i1 %.not11, label %41, label %40

teardown_fire.exit.thread:                        ; preds = %PyMonitoring_FireCallEvent.exit
  %38 = call ptr @PyErr_Occurred() #4
  %.not12 = icmp eq ptr %38, null
  br i1 %.not12, label %39, label %44

39:                                               ; preds = %teardown_fire.exit.thread
  call void @__assert_fail(ptr noundef nonnull @.str.29, ptr noundef nonnull @.str.30, i32 noundef 250, ptr noundef nonnull @__PRETTY_FUNCTION__.fire_event_call) #5
  unreachable

40:                                               ; preds = %teardown_fire.exit
  call void @__assert_fail(ptr noundef nonnull @.str.31, ptr noundef nonnull @.str.30, i32 noundef 250, ptr noundef nonnull @__PRETTY_FUNCTION__.fire_event_call) #5
  unreachable

41:                                               ; preds = %teardown_fire.exit
  %42 = zext i8 %36 to i64
  %43 = call ptr @PyLong_FromLong(i64 noundef %42) #4
  br label %44

44:                                               ; preds = %setup_fire.exit.thread, %setup_fire.exit, %teardown_fire.exit.thread, %41, %2
  %.0 = phi ptr [ null, %2 ], [ null, %setup_fire.exit ], [ %43, %41 ], [ null, %teardown_fire.exit.thread ], [ null, %setup_fire.exit.thread ]
  call void @llvm.lifetime.end.p0(i64 8, ptr nonnull %6) #4
  call void @llvm.lifetime.end.p0(i64 8, ptr nonnull %5) #4
  call void @llvm.lifetime.end.p0(i64 4, ptr nonnull %4) #4
  call void @llvm.lifetime.end.p0(i64 8, ptr nonnull %3) #4
  ret ptr %.0
}